; ModuleID = '7/624.c'
source_filename = "7/624.c"
target datalayout = "e-m:e-p270:32:32-p271:32:32-p272:64:64-i64:64-f80:128-n8:16:32:64-S128"
target triple = "x86_64-pc-linux-gnu"

@.str = private unnamed_addr constant [5 x i8] c"%s%s\00", align 1
@.str.1 = private unnamed_addr constant [7 x i8] c"%s%s%s\00", align 1
@.str.2 = private unnamed_addr constant [3 x i8] c"%s\00", align 1

; Function Attrs: noinline nounwind uwtable
define dso_local i32 @main() #0 {
  %1 = alloca i32, align 4
  %2 = alloca [256 x i8], align 16
  %3 = alloca [256 x i8], align 16
  %4 = alloca [256 x i8], align 16
  %5 = alloca [20 x i8], align 16
  %6 = alloca [20 x i8], align 16
  %7 = alloca i32, align 4
  %8 = alloca i32, align 4
  %9 = alloca i32, align 4
  %10 = alloca i32, align 4
  %11 = alloca i32, align 4
  %12 = alloca i32, align 4
  store i32 0, i32* %1, align 4
  store i32 0, i32* %9, align 4
  store i32 0, i32* %10, align 4
  store i32 0, i32* %12, align 4
  %13 = getelementptr inbounds [256 x i8], [256 x i8]* %2, i64 0, i64 0
  %14 = call i32 (i8*, ...) bitcast (i32 (...)* @gets to i32 (i8*, ...)*)(i8* %13)
  %15 = getelementptr inbounds [20 x i8], [20 x i8]* %5, i64 0, i64 0
  %16 = getelementptr inbounds [20 x i8], [20 x i8]* %6, i64 0, i64 0
  %17 = call i32 (i8*, ...) @__isoc99_scanf(i8* getelementptr inbounds ([5 x i8], [5 x i8]* @.str, i64 0, i64 0), i8* %15, i8* %16)
  store i32 0, i32* %7, align 4
  br label %18

18:                                               ; preds = %106, %0
  %19 = load i32, i32* %7, align 4
  %20 = sext i32 %19 to i64
  %21 = getelementptr inbounds [256 x i8], [256 x i8]* %2, i64 0, i64 %20
  %22 = load i8, i8* %21, align 1
  %23 = sext i8 %22 to i32
  %24 = icmp ne i32 %23, 0
  br i1 %24, label %25, label %109

25:                                               ; preds = %18
  %26 = load i32, i32* %7, align 4
  %27 = sext i32 %26 to i64
  %28 = getelementptr inbounds [256 x i8], [256 x i8]* %2, i64 0, i64 %27
  %29 = load i8, i8* %28, align 1
  %30 = sext i8 %29 to i32
  %31 = getelementptr inbounds [20 x i8], [20 x i8]* %5, i64 0, i64 0
  %32 = load i8, i8* %31, align 16
  %33 = sext i8 %32 to i32
  %34 = icmp ne i32 %30, %33
  br i1 %34, label %35, label %45

35:                                               ; preds = %25
  %36 = load i32, i32* %7, align 4
  %37 = sext i32 %36 to i64
  %38 = getelementptr inbounds [256 x i8], [256 x i8]* %2, i64 0, i64 %37
  %39 = load i8, i8* %38, align 1
  %40 = load i32, i32* %9, align 4
  %41 = sext i32 %40 to i64
  %42 = getelementptr inbounds [256 x i8], [256 x i8]* %3, i64 0, i64 %41
  store i8 %39, i8* %42, align 1
  %43 = load i32, i32* %9, align 4
  %44 = add nsw i32 %43, 1
  store i32 %44, i32* %9, align 4
  br label %98

45:                                               ; preds = %25
  %46 = load i32, i32* %7, align 4
  %47 = sext i32 %46 to i64
  %48 = getelementptr inbounds [256 x i8], [256 x i8]* %2, i64 0, i64 %47
  %49 = load i8, i8* %48, align 1
  %50 = sext i8 %49 to i32
  %51 = getelementptr inbounds [20 x i8], [20 x i8]* %5, i64 0, i64 0
  %52 = load i8, i8* %51, align 16
  %53 = sext i8 %52 to i32
  %54 = icmp eq i32 %50, %53
  br i1 %54, label %55, label %97

55:                                               ; preds = %45
  %56 = load i32, i32* %7, align 4
  store i32 %56, i32* %11, align 4
  store i32 1, i32* %12, align 4
  store i32 0, i32* %8, align 4
  br label %57

57:                                               ; preds = %80, %55
  %58 = load i32, i32* %8, align 4
  %59 = sext i32 %58 to i64
  %60 = getelementptr inbounds [20 x i8], [20 x i8]* %5, i64 0, i64 %59
  %61 = load i8, i8* %60, align 1
  %62 = sext i8 %61 to i32
  %63 = icmp ne i32 %62, 0
  br i1 %63, label %64, label %83

64:                                               ; preds = %57
  %65 = load i32, i32* %8, align 4
  %66 = sext i32 %65 to i64
  %67 = getelementptr inbounds [20 x i8], [20 x i8]* %5, i64 0, i64 %66
  %68 = load i8, i8* %67, align 1
  %69 = sext i8 %68 to i32
  %70 = load i32, i32* %11, align 4
  %71 = sext i32 %70 to i64
  %72 = getelementptr inbounds [256 x i8], [256 x i8]* %2, i64 0, i64 %71
  %73 = load i8, i8* %72, align 1
  %74 = sext i8 %73 to i32
  %75 = icmp ne i32 %69, %74
  br i1 %75, label %76, label %77

76:                                               ; preds = %64
  store i32 0, i32* %12, align 4
  br label %77

77:                                               ; preds = %76, %64
  %78 = load i32, i32* %11, align 4
  %79 = add nsw i32 %78, 1
  store i32 %79, i32* %11, align 4
  br label %80

80:                                               ; preds = %77
  %81 = load i32, i32* %8, align 4
  %82 = add nsw i32 %81, 1
  store i32 %82, i32* %8, align 4
  br label %57

83:                                               ; preds = %57
  %84 = load i32, i32* %12, align 4
  %85 = icmp eq i32 %84, 0
  br i1 %85, label %86, label %96

86:                                               ; preds = %83
  %87 = load i32, i32* %7, align 4
  %88 = sext i32 %87 to i64
  %89 = getelementptr inbounds [256 x i8], [256 x i8]* %2, i64 0, i64 %88
  %90 = load i8, i8* %89, align 1
  %91 = load i32, i32* %9, align 4
  %92 = sext i32 %91 to i64
  %93 = getelementptr inbounds [256 x i8], [256 x i8]* %3, i64 0, i64 %92
  store i8 %90, i8* %93, align 1
  %94 = load i32, i32* %9, align 4
  %95 = add nsw i32 %94, 1
  store i32 %95, i32* %9, align 4
  br label %96

96:                                               ; preds = %86, %83
  br label %97

97:                                               ; preds = %96, %45
  br label %98

98:                                               ; preds = %97, %35
  %99 = load i32, i32* %12, align 4
  %100 = icmp eq i32 %99, 1
  br i1 %100, label %101, label %105

101:                                              ; preds = %98
  %102 = load i32, i32* %9, align 4
  %103 = sext i32 %102 to i64
  %104 = getelementptr inbounds [256 x i8], [256 x i8]* %3, i64 0, i64 %103
  store i8 0, i8* %104, align 1
  br label %109

105:                                              ; preds = %98
  br label %106

106:                                              ; preds = %105
  %107 = load i32, i32* %7, align 4
  %108 = add nsw i32 %107, 1
  store i32 %108, i32* %7, align 4
  br label %18

109:                                              ; preds = %101, %18
  %110 = load i32, i32* %12, align 4
  %111 = icmp eq i32 %110, 1
  br i1 %111, label %112, label %140

112:                                              ; preds = %109
  %113 = getelementptr inbounds [20 x i8], [20 x i8]* %5, i64 0, i64 0
  %114 = call i64 @strlen(i8* %113) #3
  %115 = load i32, i32* %7, align 4
  %116 = sext i32 %115 to i64
  %117 = add i64 %116, %114
  %118 = trunc i64 %117 to i32
  store i32 %118, i32* %7, align 4
  br label %119

119:                                              ; preds = %136, %112
  %120 = load i32, i32* %7, align 4
  %121 = sext i32 %120 to i64
  %122 = getelementptr inbounds [256 x i8], [256 x i8]* %2, i64 0, i64 %121
  %123 = load i8, i8* %122, align 1
  %124 = sext i8 %123 to i32
  %125 = icmp ne i32 %124, 0
  br i1 %125, label %126, label %139

126:                                              ; preds = %119
  %127 = load i32, i32* %7, align 4
  %128 = sext i32 %127 to i64
  %129 = getelementptr inbounds [256 x i8], [256 x i8]* %2, i64 0, i64 %128
  %130 = load i8, i8* %129, align 1
  %131 = load i32, i32* %10, align 4
  %132 = sext i32 %131 to i64
  %133 = getelementptr inbounds [256 x i8], [256 x i8]* %4, i64 0, i64 %132
  store i8 %130, i8* %133, align 1
  %134 = load i32, i32* %10, align 4
  %135 = add nsw i32 %134, 1
  store i32 %135, i32* %10, align 4
  br label %136

136:                                              ; preds = %126
  %137 = load i32, i32* %7, align 4
  %138 = add nsw i32 %137, 1
  store i32 %138, i32* %7, align 4
  br label %119

139:                                              ; preds = %119
  br label %140

140:                                              ; preds = %139, %109
  %141 = load i32, i32* %10, align 4
  %142 = sext i32 %141 to i64
  %143 = getelementptr inbounds [256 x i8], [256 x i8]* %4, i64 0, i64 %142
  store i8 0, i8* %143, align 1
  %144 = load i32, i32* %12, align 4
  %145 = icmp eq i32 %144, 1
  br i1 %145, label %146, label %151

146:                                              ; preds = %140
  %147 = getelementptr inbounds [256 x i8], [256 x i8]* %3, i64 0, i64 0
  %148 = getelementptr inbounds [20 x i8], [20 x i8]* %6, i64 0, i64 0
  %149 = getelementptr inbounds [256 x i8], [256 x i8]* %4, i64 0, i64 0
  %150 = call i32 (i8*, ...) @printf(i8* getelementptr inbounds ([7 x i8], [7 x i8]* @.str.1, i64 0, i64 0), i8* %147, i8* %148, i8* %149)
  br label %151

151:                                              ; preds = %146, %140
  %152 = load i32, i32* %12, align 4
  %153 = icmp eq i32 %152, 0
  br i1 %153, label %154, label %157

154:                                              ; preds = %151
  %155 = getelementptr inbounds [256 x i8], [256 x i8]* %2, i64 0, i64 0
  %156 = call i32 (i8*, ...) @printf(i8* getelementptr inbounds ([3 x i8], [3 x i8]* @.str.2, i64 0, i64 0), i8* %155)
  br label %157

157:                                              ; preds = %154, %151
  ret i32 0
}

declare dso_local i32 @gets(...) #1

declare dso_local i32 @__isoc99_scanf(i8*, ...) #1

; Function Attrs: nounwind readonly
declare dso_local i64 @strlen(i8*) #2

declare dso_local i32 @printf(i8*, ...) #1


!llvm.module.flags = !{!0}
!llvm.ident = !{!1}

!0 = !{i32 1, !"wchar_size", i32 4}
!1 = !{!"clang version 10.0.0-4ubuntu1 "}
